target datalayout = "e-m:e-p270:32:32-p271:32:32-p272:64:64-i64:64-i128:128-f80:128-n8:16:32:64-S128"
target triple = "x86_64-pc-linux-gnu"

%"class.ncnn::Mat" = type { ptr, ptr, i64, i32, ptr, i32, i32, i32, i32, i32, i64 }

; Function Attrs: alwaysinline mustprogress nounwind uwtable
define internal void @_ZN4ncnnL8fastFreeEPv(ptr noundef %0) #2 {
  %2 = alloca ptr, align 8
  store ptr %0, ptr %2, align 8, !tbaa !32
  %3 = load ptr, ptr %2, align 8, !tbaa !32
  %4 = icmp ne ptr %3, null
  br i1 %4, label %5, label %7

5:                                                ; preds = %1
  %6 = load ptr, ptr %2, align 8, !tbaa !32
  call void @free(ptr noundef %6) #9
  br label %7

7:                                                ; preds = %5, %1
  ret void
}

; Function Attrs: alwaysinline mustprogress nounwind uwtable
define internal noundef ptr @_ZN4ncnnL10fastMallocEm(i64 noundef %0) #2 {
  %2 = alloca i64, align 8
  %3 = alloca ptr, align 8
  store i64 %0, ptr %2, align 8, !tbaa !24
  call void @llvm.lifetime.start.p0(i64 8, ptr %3) #9
  store ptr null, ptr %3, align 8, !tbaa !32
  %4 = load i64, ptr %2, align 8, !tbaa !24
  %5 = add i64 %4, 64
  %6 = call i32 @posix_memalign(ptr noundef %3, i64 noundef 64, i64 noundef %5) #9
  %7 = icmp ne i32 %6, 0
  br i1 %7, label %8, label %9

8:                                                ; preds = %1
  store ptr null, ptr %3, align 8, !tbaa !32
  br label %9

9:                                                ; preds = %8, %1
  %10 = load ptr, ptr %3, align 8, !tbaa !32
  call void @llvm.lifetime.end.p0(i64 8, ptr %3) #9
  ret ptr %10
}

; Function Attrs: alwaysinline mustprogress nounwind uwtable
define internal noundef i64 @_ZN4ncnnL9alignSizeEmi(i64 noundef %0, i32 noundef %1) #2 {
  %3 = alloca i64, align 8
  %4 = alloca i32, align 4
  store i64 %0, ptr %3, align 8, !tbaa !24
  store i32 %1, ptr %4, align 4, !tbaa !25
  %5 = load i64, ptr %3, align 8, !tbaa !24
  %6 = load i32, ptr %4, align 4, !tbaa !25
  %7 = sext i32 %6 to i64
  %8 = add i64 %5, %7
  %9 = sub i64 %8, 1
  %10 = load i32, ptr %4, align 4, !tbaa !25
  %11 = sub nsw i32 0, %10
  %12 = sext i32 %11 to i64
  %13 = and i64 %9, %12
  ret i64 %13
}

; Function Attrs: alwaysinline mustprogress nounwind uwtable
define linkonce_odr hidden noundef i64 @_ZNK4ncnn3Mat5totalEv(ptr noundef nonnull align 8 dereferenceable(72) %0) #2 comdat align 2 {
  %2 = alloca ptr, align 8
  store ptr %0, ptr %2, align 8, !tbaa !4
  %3 = load ptr, ptr %2, align 8
  %4 = getelementptr inbounds nuw %"class.ncnn::Mat", ptr %3, i32 0, i32 10
  %5 = load i64, ptr %4, align 8, !tbaa !22
  %6 = getelementptr inbounds nuw %"class.ncnn::Mat", ptr %3, i32 0, i32 9
  %7 = load i32, ptr %6, align 8, !tbaa !20
  %8 = sext i32 %7 to i64
  %9 = mul i64 %5, %8
  ret i64 %9
}

; Function Attrs: alwaysinline mustprogress uwtable
define linkonce_odr hidden void @_ZN4ncnn3Mat7releaseEv(ptr noundef nonnull align 8 dereferenceable(72) %0) #1 comdat align 2 {
  %2 = alloca ptr, align 8
  %3 = alloca i32, align 4
  %4 = alloca i32, align 4
  store ptr %0, ptr %2, align 8, !tbaa !4
  %5 = load ptr, ptr %2, align 8
  %6 = getelementptr inbounds nuw %"class.ncnn::Mat", ptr %5, i32 0, i32 1
  %7 = load ptr, ptr %6, align 8, !tbaa !28
  %8 = icmp ne ptr %7, null
  br i1 %8, label %9, label %32

9:                                                ; preds = %1
  %10 = getelementptr inbounds nuw %"class.ncnn::Mat", ptr %5, i32 0, i32 1
  %11 = load ptr, ptr %10, align 8, !tbaa !28
  store i32 -1, ptr %3, align 4, !tbaa !25
  %12 = load i32, ptr %3, align 4
  %13 = atomicrmw add ptr %11, i32 %12 acq_rel, align 4
  store i32 %13, ptr %4, align 4
  %14 = load i32, ptr %4, align 4, !tbaa !25
  %15 = icmp eq i32 %14, 1
  br i1 %15, label %16, label %32

16:                                               ; preds = %9
  %17 = getelementptr inbounds nuw %"class.ncnn::Mat", ptr %5, i32 0, i32 4
  %18 = load ptr, ptr %17, align 8, !tbaa !29
  %19 = icmp ne ptr %18, null
  br i1 %19, label %20, label %28

20:                                               ; preds = %16
  %21 = getelementptr inbounds nuw %"class.ncnn::Mat", ptr %5, i32 0, i32 4
  %22 = load ptr, ptr %21, align 8, !tbaa !29
  %23 = getelementptr inbounds nuw %"class.ncnn::Mat", ptr %5, i32 0, i32 0
  %24 = load ptr, ptr %23, align 8, !tbaa !23
  %25 = load ptr, ptr %22, align 8, !tbaa !30
  %26 = getelementptr inbounds ptr, ptr %25, i64 3
  %27 = load ptr, ptr %26, align 8
  call void %27(ptr noundef nonnull align 8 dereferenceable(8) %22, ptr noundef %24)
  br label %31

28:                                               ; preds = %16
  %29 = getelementptr inbounds nuw %"class.ncnn::Mat", ptr %5, i32 0, i32 0
  %30 = load ptr, ptr %29, align 8, !tbaa !23
  call void @_ZN4ncnnL8fastFreeEPv(ptr noundef %30)
  br label %31

31:                                               ; preds = %28, %20
  br label %32

32:                                               ; preds = %31, %9, %1
  %33 = getelementptr inbounds nuw %"class.ncnn::Mat", ptr %5, i32 0, i32 0
  store ptr null, ptr %33, align 8, !tbaa !23
  %34 = getelementptr inbounds nuw %"class.ncnn::Mat", ptr %5, i32 0, i32 2
  store i64 0, ptr %34, align 8, !tbaa !17
  %35 = getelementptr inbounds nuw %"class.ncnn::Mat", ptr %5, i32 0, i32 3
  store i32 0, ptr %35, align 8, !tbaa !18
  %36 = getelementptr inbounds nuw %"class.ncnn::Mat", ptr %5, i32 0, i32 5
  store i32 0, ptr %36, align 8, !tbaa !11
  %37 = getelementptr inbounds nuw %"class.ncnn::Mat", ptr %5, i32 0, i32 6
  store i32 0, ptr %37, align 4, !tbaa !16
  %38 = getelementptr inbounds nuw %"class.ncnn::Mat", ptr %5, i32 0, i32 7
  store i32 0, ptr %38, align 8, !tbaa !19
  %39 = getelementptr inbounds nuw %"class.ncnn::Mat", ptr %5, i32 0, i32 8
  store i32 0, ptr %39, align 4, !tbaa !21
  %40 = getelementptr inbounds nuw %"class.ncnn::Mat", ptr %5, i32 0, i32 9
  store i32 0, ptr %40, align 8, !tbaa !20
  %41 = getelementptr inbounds nuw %"class.ncnn::Mat", ptr %5, i32 0, i32 10
  store i64 0, ptr %41, align 8, !tbaa !22
  %42 = getelementptr inbounds nuw %"class.ncnn::Mat", ptr %5, i32 0, i32 1
  store ptr null, ptr %42, align 8, !tbaa !28
  ret void
}

; Function Attrs: mustprogress uwtable
define hidden void @_ZN4ncnn3Mat6createEimPNS_9AllocatorE(ptr noundef nonnull align 8 dereferenceable(72) %0, i32 noundef %1, i64 noundef %2, ptr noundef %3) #0 align 2 {
  %5 = alloca ptr, align 8
  %6 = alloca i32, align 4
  %7 = alloca i64, align 8
  %8 = alloca ptr, align 8
  %9 = alloca i64, align 8
  store ptr %0, ptr %5, align 8, !tbaa !4
  store i32 %1, ptr %6, align 4, !tbaa !25
  store i64 %2, ptr %7, align 8, !tbaa !24
  store ptr %3, ptr %8, align 8, !tbaa !9
  %10 = load ptr, ptr %5, align 8
  %11 = getelementptr inbounds nuw %"class.ncnn::Mat", ptr %10, i32 0, i32 5
  %12 = load i32, ptr %11, align 8, !tbaa !11
  %13 = icmp eq i32 %12, 1
  br i1 %13, label %14, label %34

14:                                               ; preds = %4
  %15 = getelementptr inbounds nuw %"class.ncnn::Mat", ptr %10, i32 0, i32 6
  %16 = load i32, ptr %15, align 4, !tbaa !16
  %17 = load i32, ptr %6, align 4, !tbaa !25
  %18 = icmp eq i32 %16, %17
  br i1 %18, label %19, label %34

19:                                               ; preds = %14
  %20 = getelementptr inbounds nuw %"class.ncnn::Mat", ptr %10, i32 0, i32 2
  %21 = load i64, ptr %20, align 8, !tbaa !17
  %22 = load i64, ptr %7, align 8, !tbaa !24
  %23 = icmp eq i64 %21, %22
  br i1 %23, label %24, label %34

24:                                               ; preds = %19
  %25 = getelementptr inbounds nuw %"class.ncnn::Mat", ptr %10, i32 0, i32 3
  %26 = load i32, ptr %25, align 8, !tbaa !18
  %27 = icmp eq i32 %26, 1
  br i1 %27, label %28, label %34

28:                                               ; preds = %24
  %29 = getelementptr inbounds nuw %"class.ncnn::Mat", ptr %10, i32 0, i32 4
  %30 = load ptr, ptr %29, align 8, !tbaa !29
  %31 = load ptr, ptr %8, align 8, !tbaa !9
  %32 = icmp eq ptr %30, %31
  br i1 %32, label %33, label %34

33:                                               ; preds = %28
  br label %90

34:                                               ; preds = %28, %24, %19, %14, %4
  call void @_ZN4ncnn3Mat7releaseEv(ptr noundef nonnull align 8 dereferenceable(72) %10)
  %35 = load i64, ptr %7, align 8, !tbaa !24
  %36 = getelementptr inbounds nuw %"class.ncnn::Mat", ptr %10, i32 0, i32 2
  store i64 %35, ptr %36, align 8, !tbaa !17
  %37 = getelementptr inbounds nuw %"class.ncnn::Mat", ptr %10, i32 0, i32 3
  store i32 1, ptr %37, align 8, !tbaa !18
  %38 = load ptr, ptr %8, align 8, !tbaa !9
  %39 = getelementptr inbounds nuw %"class.ncnn::Mat", ptr %10, i32 0, i32 4
  store ptr %38, ptr %39, align 8, !tbaa !29
  %40 = getelementptr inbounds nuw %"class.ncnn::Mat", ptr %10, i32 0, i32 5
  store i32 1, ptr %40, align 8, !tbaa !11
  %41 = load i32, ptr %6, align 4, !tbaa !25
  %42 = getelementptr inbounds nuw %"class.ncnn::Mat", ptr %10, i32 0, i32 6
  store i32 %41, ptr %42, align 4, !tbaa !16
  %43 = getelementptr inbounds nuw %"class.ncnn::Mat", ptr %10, i32 0, i32 7
  store i32 1, ptr %43, align 8, !tbaa !19
  %44 = getelementptr inbounds nuw %"class.ncnn::Mat", ptr %10, i32 0, i32 8
  store i32 1, ptr %44, align 4, !tbaa !21
  %45 = getelementptr inbounds nuw %"class.ncnn::Mat", ptr %10, i32 0, i32 9
  store i32 1, ptr %45, align 8, !tbaa !20
  %46 = getelementptr inbounds nuw %"class.ncnn::Mat", ptr %10, i32 0, i32 6
  %47 = load i32, ptr %46, align 4, !tbaa !16
  %48 = sext i32 %47 to i64
  %49 = getelementptr inbounds nuw %"class.ncnn::Mat", ptr %10, i32 0, i32 10
  store i64 %48, ptr %49, align 8, !tbaa !22
  call void @llvm.lifetime.start.p0(i64 8, ptr %9) #9
  %50 = call noundef i64 @_ZNK4ncnn3Mat5totalEv(ptr noundef nonnull align 8 dereferenceable(72) %10)
  %51 = getelementptr inbounds nuw %"class.ncnn::Mat", ptr %10, i32 0, i32 2
  %52 = load i64, ptr %51, align 8, !tbaa !17
  %53 = mul i64 %50, %52
  %54 = call noundef i64 @_ZN4ncnnL9alignSizeEmi(i64 noundef %53, i32 noundef 4)
  store i64 %54, ptr %9, align 8, !tbaa !24
  %55 = load i64, ptr %9, align 8, !tbaa !24
  %56 = icmp ugt i64 %55, 0
  br i1 %56, label %57, label %77

57:                                               ; preds = %34
  %58 = getelementptr inbounds nuw %"class.ncnn::Mat", ptr %10, i32 0, i32 4
  %59 = load ptr, ptr %58, align 8, !tbaa !29
  %60 = icmp ne ptr %59, null
  br i1 %60, label %61, label %71

61:                                               ; preds = %57
  %62 = getelementptr inbounds nuw %"class.ncnn::Mat", ptr %10, i32 0, i32 4
  %63 = load ptr, ptr %62, align 8, !tbaa !29
  %64 = load i64, ptr %9, align 8, !tbaa !24
  %65 = add i64 %64, 4
  %66 = load ptr, ptr %63, align 8, !tbaa !30
  %67 = getelementptr inbounds ptr, ptr %66, i64 2
  %68 = load ptr, ptr %67, align 8
  %69 = call noundef ptr %68(ptr noundef nonnull align 8 dereferenceable(8) %63, i64 noundef %65)
  %70 = getelementptr inbounds nuw %"class.ncnn::Mat", ptr %10, i32 0, i32 0
  store ptr %69, ptr %70, align 8, !tbaa !23
  br label %76

71:                                               ; preds = %57
  %72 = load i64, ptr %9, align 8, !tbaa !24
  %73 = add i64 %72, 4
  %74 = call noundef ptr @_ZN4ncnnL10fastMallocEm(i64 noundef %73)
  %75 = getelementptr inbounds nuw %"class.ncnn::Mat", ptr %10, i32 0, i32 0
  store ptr %74, ptr %75, align 8, !tbaa !23
  br label %76

76:                                               ; preds = %71, %61
  br label %77

77:                                               ; preds = %76, %34
  %78 = getelementptr inbounds nuw %"class.ncnn::Mat", ptr %10, i32 0, i32 0
  %79 = load ptr, ptr %78, align 8, !tbaa !23
  %80 = icmp ne ptr %79, null
  br i1 %80, label %81, label %89

81:                                               ; preds = %77
  %82 = getelementptr inbounds nuw %"class.ncnn::Mat", ptr %10, i32 0, i32 0
  %83 = load ptr, ptr %82, align 8, !tbaa !23
  %84 = load i64, ptr %9, align 8, !tbaa !24
  %85 = getelementptr inbounds nuw i8, ptr %83, i64 %84
  %86 = getelementptr inbounds nuw %"class.ncnn::Mat", ptr %10, i32 0, i32 1
  store ptr %85, ptr %86, align 8, !tbaa !28
  %87 = getelementptr inbounds nuw %"class.ncnn::Mat", ptr %10, i32 0, i32 1
  %88 = load ptr, ptr %87, align 8, !tbaa !28
  store i32 1, ptr %88, align 4, !tbaa !25
  br label %89

89:                                               ; preds = %81, %77
  call void @llvm.lifetime.end.p0(i64 8, ptr %9) #9
  br label %90

90:                                               ; preds = %89, %33
  ret void
}