; Function Attrs: mustprogress uwtable
define hidden void @_ZN4ncnn3Mat6createEimPNS_9AllocatorE(ptr noundef nonnull align 8 captures(none) dereferenceable(72) %0, i32 noundef %1, i64 noundef %2, ptr noundef %3) local_unnamed_addr #0 align 2 {
  %5 = alloca ptr, align 8
  %6 = getelementptr inbounds nuw i8, ptr %0, i64 40
  %7 = load i32, ptr %6, align 8, !tbaa !15
  %8 = icmp eq i32 %7, 1
  %9 = getelementptr inbounds nuw i8, ptr %0, i64 44
  %10 = load i32, ptr %9, align 4
  %11 = icmp eq i32 %10, %1
  %or.cond = select i1 %8, i1 %11, i1 false
  %12 = getelementptr inbounds nuw i8, ptr %0, i64 16
  %13 = load i64, ptr %12, align 8
  %14 = icmp eq i64 %13, %2
  %or.cond18 = select i1 %or.cond, i1 %14, i1 false
  %15 = getelementptr inbounds nuw i8, ptr %0, i64 24
  %16 = load i32, ptr %15, align 8
  %17 = icmp eq i32 %16, 1
  %or.cond21 = select i1 %or.cond18, i1 %17, i1 false
  %18 = getelementptr inbounds nuw i8, ptr %0, i64 32
  %19 = load ptr, ptr %18, align 8
  %20 = icmp eq ptr %19, %3
  %or.cond24 = select i1 %or.cond21, i1 %20, i1 false
  br i1 %or.cond24, label %thread-pre-split.thread, label %21

21:                                               ; preds = %4
  %22 = getelementptr inbounds nuw i8, ptr %0, i64 8
  %23 = load ptr, ptr %22, align 8, !tbaa !19
  %.not.i = icmp eq ptr %23, null
  br i1 %.not.i, label %_ZN4ncnn3Mat7releaseEv.exit, label %24

24:                                               ; preds = %21
  %25 = atomicrmw add ptr %23, i32 -1 acq_rel, align 4
  %26 = icmp eq i32 %25, 1
  br i1 %26, label %27, label %_ZN4ncnn3Mat7releaseEv.exit

27:                                               ; preds = %24
  %28 = load ptr, ptr %18, align 8, !tbaa !30
  %.not3.i = icmp eq ptr %28, null
  %29 = load ptr, ptr %0, align 8, !tbaa !4
  br i1 %.not3.i, label %34, label %30

30:                                               ; preds = %27
  %31 = load ptr, ptr %28, align 8, !tbaa !31
  %32 = getelementptr inbounds nuw i8, ptr %31, i64 24
  %33 = load ptr, ptr %32, align 8
  tail call void %33(ptr noundef nonnull align 8 dereferenceable(8) %28, ptr noundef %29)
  br label %_ZN4ncnn3Mat7releaseEv.exit

34:                                               ; preds = %27
  %.not.i25 = icmp eq ptr %29, null
  br i1 %.not.i25, label %_ZN4ncnn3Mat7releaseEv.exit, label %35

35:                                               ; preds = %34
  tail call void @free(ptr noundef nonnull %29) #12
  br label %_ZN4ncnn3Mat7releaseEv.exit

_ZN4ncnn3Mat7releaseEv.exit:                      ; preds = %35, %34, %21, %24, %30
  %36 = getelementptr inbounds nuw i8, ptr %0, i64 48
  %37 = getelementptr inbounds nuw i8, ptr %0, i64 52
  %38 = getelementptr inbounds nuw i8, ptr %0, i64 56
  %39 = getelementptr inbounds nuw i8, ptr %0, i64 64
  tail call void @llvm.memset.p0.i64(ptr noundef nonnull align 8 dereferenceable(16) %0, i8 0, i64 16, i1 false)
  store i64 %2, ptr %12, align 8, !tbaa !17
  store i32 1, ptr %15, align 8, !tbaa !18
  store ptr %3, ptr %18, align 8, !tbaa !30
  store i32 1, ptr %6, align 8, !tbaa !15
  store i32 %1, ptr %9, align 4, !tbaa !16
  store i32 1, ptr %36, align 8, !tbaa !20
  store i32 1, ptr %37, align 4, !tbaa !21
  store i32 1, ptr %38, align 8, !tbaa !14
  %40 = sext i32 %1 to i64
  store i64 %40, ptr %39, align 8, !tbaa !13
  %41 = mul i64 %2, %40
  %42 = add i64 %41, 3
  %43 = and i64 %42, -4
  %.not = icmp eq i64 %43, 0
  br i1 %.not, label %thread-pre-split.thread, label %44

44:                                               ; preds = %_ZN4ncnn3Mat7releaseEv.exit
  %.not12 = icmp eq ptr %3, null
  br i1 %.not12, label %_ZN4ncnnL10fastMallocEm.exit, label %45

45:                                               ; preds = %44
  %46 = add i64 %43, 4
  %47 = load ptr, ptr %3, align 8, !tbaa !31
  %48 = getelementptr inbounds nuw i8, ptr %47, i64 16
  %49 = load ptr, ptr %48, align 8
  %50 = tail call noundef ptr %49(ptr noundef nonnull align 8 dereferenceable(8) %3, i64 noundef %46)
  br label %thread-pre-split

_ZN4ncnnL10fastMallocEm.exit:                     ; preds = %44
  call void @llvm.lifetime.start.p0(i64 8, ptr nonnull %5) #12
  store ptr null, ptr %5, align 8, !tbaa !33
  %51 = add i64 %43, 68
  %52 = call i32 @posix_memalign(ptr noundef nonnull %5, i64 noundef 64, i64 noundef %51) #12
  %.not.i26 = icmp eq i32 %52, 0
  %.pre = load ptr, ptr %5, align 8
  %53 = select i1 %.not.i26, ptr %.pre, ptr null
  call void @llvm.lifetime.end.p0(i64 8, ptr nonnull %5) #12
  br label %thread-pre-split

thread-pre-split:                                 ; preds = %45, %_ZN4ncnnL10fastMallocEm.exit
  %.sink = phi ptr [ %50, %45 ], [ %53, %_ZN4ncnnL10fastMallocEm.exit ]
  store ptr %.sink, ptr %0, align 8, !tbaa !4
  %.not13 = icmp eq ptr %.sink, null
  br i1 %.not13, label %thread-pre-split.thread, label %54

54:                                               ; preds = %thread-pre-split
  %55 = getelementptr inbounds nuw i8, ptr %.sink, i64 %43
  store ptr %55, ptr %22, align 8, !tbaa !19
  store i32 1, ptr %55, align 4, !tbaa !34
  br label %thread-pre-split.thread

thread-pre-split.thread:                          ; preds = %_ZN4ncnn3Mat7releaseEv.exit, %thread-pre-split, %54, %4
  ret void
}